target datalayout = "e-m:e-p270:32:32-p271:32:32-p272:64:64-i64:64-i128:128-f80:128-n8:16:32:64-S128"
target triple = "x86_64-pc-linux-gnu"

%"class.pybind11::object" = type { %"class.pybind11::handle" }
%"class.pybind11::handle" = type { ptr }
%"class.pybind11::str" = type { %"class.pybind11::object" }

@.str.227 = private unnamed_addr constant [22 x i8] c"NoisyAlloc(double {})\00", align 1

; Function Attrs: mustprogress uwtable
define internal void @_ZZ35test_submodule_factory_constructorsRN8pybind117module_EEN10NoisyAllocC2Ed(ptr noundef nonnull align 1 dereferenceable(1) %0, double noundef %1) unnamed_addr #1 align 2 personality ptr @__gxx_personality_v0 {
  %3 = alloca ptr, align 8
  %4 = alloca double, align 8
  %5 = alloca %"class.pybind11::str", align 8
  %6 = alloca %"class.pybind11::str", align 8
  %7 = alloca ptr, align 8
  %8 = alloca i32, align 4
  store ptr %0, ptr %3, align 8
  store double %1, ptr %4, align 8
  call void @_ZN8pybind113strC2EPKc(ptr noundef nonnull align 8 dereferenceable(8) %6, ptr noundef @.str.227)
  invoke void @_ZNK8pybind113str6formatIJRdEEES0_DpOT_(ptr dead_on_unwind writable sret(%"class.pybind11::str") align 8 %5, ptr noundef nonnull align 8 dereferenceable(8) %6, ptr noundef nonnull align 8 dereferenceable(8) %4)
          to label %9 unwind label %11

9:                                                ; preds = %2
  invoke void @_ZN8pybind115printILNS_19return_value_policyE1EJNS_3strEEEEvDpOT0_(ptr noundef nonnull align 8 dereferenceable(8) %5)
          to label %10 unwind label %15

10:                                               ; preds = %9
  call void @_ZN8pybind113strD2Ev(ptr noundef nonnull align 8 dereferenceable(8) %5) #16
  call void @_ZN8pybind113strD2Ev(ptr noundef nonnull align 8 dereferenceable(8) %6) #16
  ret void

11:                                               ; preds = %2
  %12 = landingpad { ptr, i32 }
          cleanup
  %13 = extractvalue { ptr, i32 } %12, 0
  store ptr %13, ptr %7, align 8
  %14 = extractvalue { ptr, i32 } %12, 1
  store i32 %14, ptr %8, align 4
  br label %19

15:                                               ; preds = %9
  %16 = landingpad { ptr, i32 }
          cleanup
  %17 = extractvalue { ptr, i32 } %16, 0
  store ptr %17, ptr %7, align 8
  %18 = extractvalue { ptr, i32 } %16, 1
  store i32 %18, ptr %8, align 4
  call void @_ZN8pybind113strD2Ev(ptr noundef nonnull align 8 dereferenceable(8) %5) #16
  br label %19

19:                                               ; preds = %15, %11
  call void @_ZN8pybind113strD2Ev(ptr noundef nonnull align 8 dereferenceable(8) %6) #16
  br label %20

20:                                               ; preds = %19
  %21 = load ptr, ptr %7, align 8
  %22 = load i32, ptr %8, align 4
  %23 = insertvalue { ptr, i32 } poison, ptr %21, 0
  %24 = insertvalue { ptr, i32 } %23, i32 %22, 1
  resume { ptr, i32 } %24
}